target datalayout = "e-m:e-p270:32:32-p271:32:32-p272:64:64-i64:64-i128:128-f80:128-n8:16:32:64-S128"
target triple = "x86_64-pc-linux-gnu"

%"struct.Imf_3_4::PreviewRgba" = type { i8, i8, i8, i8 }
%"class.Imf_3_4::PreviewImage" = type { i32, i32, ptr }

; Function Attrs: mustprogress nounwind uwtable
define linkonce_odr hidden void @_ZN7Imf_3_411PreviewRgbaC2Ehhhh(ptr noundef nonnull align 1 dereferenceable(4) %0, i8 noundef zeroext %1, i8 noundef zeroext %2, i8 noundef zeroext %3, i8 noundef zeroext %4) unnamed_addr #4 comdat align 2 {
  %6 = alloca ptr, align 8
  %7 = alloca i8, align 1
  %8 = alloca i8, align 1
  %9 = alloca i8, align 1
  %10 = alloca i8, align 1
  store ptr %0, ptr %6, align 8, !tbaa !10
  store i8 %1, ptr %7, align 1, !tbaa !17
  store i8 %2, ptr %8, align 1, !tbaa !17
  store i8 %3, ptr %9, align 1, !tbaa !17
  store i8 %4, ptr %10, align 1, !tbaa !17
  %11 = load ptr, ptr %6, align 8
  %12 = getelementptr inbounds nuw %"struct.Imf_3_4::PreviewRgba", ptr %11, i32 0, i32 0
  %13 = load i8, ptr %7, align 1, !tbaa !17
  store i8 %13, ptr %12, align 1, !tbaa !23
  %14 = getelementptr inbounds nuw %"struct.Imf_3_4::PreviewRgba", ptr %11, i32 0, i32 1
  %15 = load i8, ptr %8, align 1, !tbaa !17
  store i8 %15, ptr %14, align 1, !tbaa !25
  %16 = getelementptr inbounds nuw %"struct.Imf_3_4::PreviewRgba", ptr %11, i32 0, i32 2
  %17 = load i8, ptr %9, align 1, !tbaa !17
  store i8 %17, ptr %16, align 1, !tbaa !26
  %18 = getelementptr inbounds nuw %"struct.Imf_3_4::PreviewRgba", ptr %11, i32 0, i32 3
  %19 = load i8, ptr %10, align 1, !tbaa !17
  store i8 %19, ptr %18, align 1, !tbaa !27
  ret void
}

; Function Attrs: mustprogress uwtable
define noundef nonnull align 8 dereferenceable(16) ptr @_ZN7Imf_3_412PreviewImageaSERKS0_(ptr noundef nonnull align 8 dereferenceable(16) %0, ptr noundef nonnull align 8 dereferenceable(16) %1) #0 align 2 personality ptr @__gxx_personality_v0 {
  %3 = alloca ptr, align 8
  %4 = alloca ptr, align 8
  %5 = alloca ptr, align 8
  %6 = alloca i32, align 4
  %7 = alloca i32, align 4
  store ptr %0, ptr %3, align 8, !tbaa !3
  store ptr %1, ptr %4, align 8, !tbaa !3
  %8 = load ptr, ptr %3, align 8
  %9 = load ptr, ptr %4, align 8, !tbaa !3
  %10 = icmp ne ptr %8, %9
  br i1 %10, label %11, label %77

11:                                               ; preds = %2
  %12 = getelementptr inbounds nuw %"class.Imf_3_4::PreviewImage", ptr %8, i32 0, i32 2
  %13 = load ptr, ptr %12, align 8, !tbaa !15
  %14 = icmp eq ptr %13, null
  br i1 %14, label %16, label %15

15:                                               ; preds = %11
  call void @_ZdaPv(ptr noundef %13) #12
  br label %16

16:                                               ; preds = %15, %11
  %17 = load ptr, ptr %4, align 8, !tbaa !3
  %18 = getelementptr inbounds nuw %"class.Imf_3_4::PreviewImage", ptr %17, i32 0, i32 0
  %19 = load i32, ptr %18, align 8, !tbaa !12
  %20 = getelementptr inbounds nuw %"class.Imf_3_4::PreviewImage", ptr %8, i32 0, i32 0
  store i32 %19, ptr %20, align 8, !tbaa !12
  %21 = load ptr, ptr %4, align 8, !tbaa !3
  %22 = getelementptr inbounds nuw %"class.Imf_3_4::PreviewImage", ptr %21, i32 0, i32 1
  %23 = load i32, ptr %22, align 4, !tbaa !14
  %24 = getelementptr inbounds nuw %"class.Imf_3_4::PreviewImage", ptr %8, i32 0, i32 1
  store i32 %23, ptr %24, align 4, !tbaa !14
  %25 = load ptr, ptr %4, align 8, !tbaa !3
  %26 = getelementptr inbounds nuw %"class.Imf_3_4::PreviewImage", ptr %25, i32 0, i32 0
  %27 = load i32, ptr %26, align 8, !tbaa !12
  %28 = load ptr, ptr %4, align 8, !tbaa !3
  %29 = getelementptr inbounds nuw %"class.Imf_3_4::PreviewImage", ptr %28, i32 0, i32 1
  %30 = load i32, ptr %29, align 4, !tbaa !14
  %31 = mul i32 %27, %30
  %32 = zext i32 %31 to i64
  %33 = call { i64, i1 } @llvm.umul.with.overflow.i64(i64 %32, i64 4)
  %34 = extractvalue { i64, i1 } %33, 1
  %35 = extractvalue { i64, i1 } %33, 0
  %36 = select i1 %34, i64 -1, i64 %35
  %37 = call noalias noundef nonnull ptr @_Znam(i64 noundef %36) #10
  %38 = icmp eq i64 %32, 0
  br i1 %38, label %46, label %39

39:                                               ; preds = %16
  %40 = getelementptr inbounds %"struct.Imf_3_4::PreviewRgba", ptr %37, i64 %32
  br label %41

41:                                               ; preds = %43, %39
  %42 = phi ptr [ %37, %39 ], [ %44, %43 ]
  invoke void @_ZN7Imf_3_411PreviewRgbaC2Ehhhh(ptr noundef nonnull align 1 dereferenceable(4) %42, i8 noundef zeroext 0, i8 noundef zeroext 0, i8 noundef zeroext 0, i8 noundef zeroext -1)
          to label %43 unwind label %57

43:                                               ; preds = %41
  %44 = getelementptr inbounds %"struct.Imf_3_4::PreviewRgba", ptr %42, i64 1
  %45 = icmp eq ptr %44, %40
  br i1 %45, label %46, label %41

46:                                               ; preds = %16, %43
  %47 = getelementptr inbounds nuw %"class.Imf_3_4::PreviewImage", ptr %8, i32 0, i32 2
  store ptr %37, ptr %47, align 8, !tbaa !15
  call void @llvm.lifetime.start.p0(i64 4, ptr %7) #11
  store i32 0, ptr %7, align 4, !tbaa !8
  br label %48

48:                                               ; preds = %73, %46
  %49 = load i32, ptr %7, align 4, !tbaa !8
  %50 = getelementptr inbounds nuw %"class.Imf_3_4::PreviewImage", ptr %8, i32 0, i32 0
  %51 = load i32, ptr %50, align 8, !tbaa !12
  %52 = getelementptr inbounds nuw %"class.Imf_3_4::PreviewImage", ptr %8, i32 0, i32 1
  %53 = load i32, ptr %52, align 4, !tbaa !14
  %54 = mul i32 %51, %53
  %55 = icmp ult i32 %49, %54
  br i1 %55, label %61, label %56

56:                                               ; preds = %48
  call void @llvm.lifetime.end.p0(i64 4, ptr %7) #11
  br label %76

57:                                               ; preds = %41
  %58 = landingpad { ptr, i32 }
          cleanup
  %59 = extractvalue { ptr, i32 } %58, 0
  store ptr %59, ptr %5, align 8
  %60 = extractvalue { ptr, i32 } %58, 1
  store i32 %60, ptr %6, align 4
  call void @_ZdaPvm(ptr noundef %37, i64 noundef %36) #12
  br label %78

61:                                               ; preds = %48
  %62 = load ptr, ptr %4, align 8, !tbaa !3
  %63 = getelementptr inbounds nuw %"class.Imf_3_4::PreviewImage", ptr %62, i32 0, i32 2
  %64 = load ptr, ptr %63, align 8, !tbaa !15
  %65 = load i32, ptr %7, align 4, !tbaa !8
  %66 = zext i32 %65 to i64
  %67 = getelementptr inbounds nuw %"struct.Imf_3_4::PreviewRgba", ptr %64, i64 %66
  %68 = getelementptr inbounds nuw %"class.Imf_3_4::PreviewImage", ptr %8, i32 0, i32 2
  %69 = load ptr, ptr %68, align 8, !tbaa !15
  %70 = load i32, ptr %7, align 4, !tbaa !8
  %71 = zext i32 %70 to i64
  %72 = getelementptr inbounds nuw %"struct.Imf_3_4::PreviewRgba", ptr %69, i64 %71
  call void @llvm.memcpy.p0.p0.i64(ptr align 1 %72, ptr align 1 %67, i64 4, i1 false), !tbaa.struct !16
  br label %73

73:                                               ; preds = %61
  %74 = load i32, ptr %7, align 4, !tbaa !8
  %75 = add i32 %74, 1
  store i32 %75, ptr %7, align 4, !tbaa !8
  br label %48, !llvm.loop !29

76:                                               ; preds = %56
  br label %77

77:                                               ; preds = %76, %2
  ret ptr %8

78:                                               ; preds = %57
  %79 = load ptr, ptr %5, align 8
  %80 = load i32, ptr %6, align 4
  %81 = insertvalue { ptr, i32 } poison, ptr %79, 0
  %82 = insertvalue { ptr, i32 } %81, i32 %80, 1
  resume { ptr, i32 } %82
}