; Function Attrs: mustprogress uwtable
define noundef nonnull align 8 dereferenceable(16) ptr @_ZN7Imf_3_412PreviewImageaSERKS0_(ptr noundef nonnull returned align 8 dereferenceable(16) %0, ptr noundef nonnull readonly align 8 dereferenceable(16) %1) local_unnamed_addr #0 align 2 personality ptr @__gxx_personality_v0 {
  %.not = icmp eq ptr %0, %1
  br i1 %.not, label %.loopexit, label %3

3:                                                ; preds = %2
  %4 = getelementptr inbounds nuw i8, ptr %0, i64 8
  %5 = load ptr, ptr %4, align 8, !tbaa !16
  %6 = icmp eq ptr %5, null
  br i1 %6, label %8, label %7

7:                                                ; preds = %3
  tail call void @_ZdaPv(ptr noundef nonnull %5) #11
  br label %8

8:                                                ; preds = %7, %3
  %9 = load i32, ptr %1, align 8, !tbaa !3
  store i32 %9, ptr %0, align 8, !tbaa !3
  %10 = getelementptr inbounds nuw i8, ptr %1, i64 4
  %11 = load i32, ptr %10, align 4, !tbaa !10
  %12 = getelementptr inbounds nuw i8, ptr %0, i64 4
  store i32 %11, ptr %12, align 4, !tbaa !10
  %13 = mul i32 %11, %9
  %14 = zext i32 %13 to i64
  %15 = shl nuw nsw i64 %14, 2
  %16 = tail call noalias noundef nonnull ptr @_Znam(i64 noundef %15) #10
  %17 = icmp eq i32 %13, 0
  br i1 %17, label %.loopexit14.thread, label %18

.loopexit14.thread:                               ; preds = %8
  store ptr %16, ptr %4, align 8, !tbaa !16
  br label %.loopexit

18:                                               ; preds = %8
  %19 = getelementptr inbounds nuw %"struct.Imf_3_4::PreviewRgba", ptr %16, i64 %14
  br label %20

20:                                               ; preds = %20, %18
  %21 = phi ptr [ %16, %18 ], [ %25, %20 ]
  store i8 0, ptr %21, align 1, !tbaa !11
  %22 = getelementptr inbounds nuw i8, ptr %21, i64 1
  store i8 0, ptr %22, align 1, !tbaa !13
  %23 = getelementptr inbounds nuw i8, ptr %21, i64 2
  store i8 0, ptr %23, align 1, !tbaa !14
  %24 = getelementptr inbounds nuw i8, ptr %21, i64 3
  store i8 -1, ptr %24, align 1, !tbaa !15
  %25 = getelementptr inbounds nuw i8, ptr %21, i64 4
  %26 = icmp eq ptr %25, %19
  br i1 %26, label %.lr.ph, label %20

.lr.ph:                                           ; preds = %20
  store ptr %16, ptr %4, align 8, !tbaa !16
  %27 = getelementptr inbounds nuw i8, ptr %1, i64 8
  br label %28

28:                                               ; preds = %.lr.ph, %28
  %indvars.iv = phi i64 [ 0, %.lr.ph ], [ %indvars.iv.next, %28 ]
  %29 = load ptr, ptr %27, align 8, !tbaa !16
  %30 = getelementptr inbounds nuw %"struct.Imf_3_4::PreviewRgba", ptr %29, i64 %indvars.iv
  %31 = load ptr, ptr %4, align 8, !tbaa !16
  %32 = getelementptr inbounds nuw %"struct.Imf_3_4::PreviewRgba", ptr %31, i64 %indvars.iv
  %33 = load i32, ptr %30, align 1
  store i32 %33, ptr %32, align 1
  %indvars.iv.next = add nuw nsw i64 %indvars.iv, 1
  %34 = load i32, ptr %0, align 8, !tbaa !3
  %35 = load i32, ptr %12, align 4, !tbaa !10
  %36 = mul i32 %35, %34
  %37 = zext i32 %36 to i64
  %38 = icmp samesign ult i64 %indvars.iv.next, %37
  br i1 %38, label %28, label %.loopexit, !llvm.loop !21

.loopexit:                                        ; preds = %28, %.loopexit14.thread, %2
  ret ptr %0
}